target datalayout = "e-m:e-p270:32:32-p271:32:32-p272:64:64-i64:64-i128:128-f80:128-n8:16:32:64-S128"
target triple = "x86_64-pc-linux-gnu"

%"struct.nblib::StrongType" = type { float }
%"class.std::tuple" = type { %"struct.std::_Tuple_impl" }
%"struct.std::_Tuple_impl" = type { %"struct.std::_Tuple_impl.0", %"struct.std::_Head_base.5" }
%"struct.std::_Tuple_impl.0" = type { %"struct.std::_Head_base" }
%"struct.std::_Head_base" = type { %"struct.nblib::StrongType.1" }
%"struct.nblib::StrongType.1" = type { %"class.std::__cxx11::basic_string" }
%"class.std::__cxx11::basic_string" = type { %"struct.std::__cxx11::basic_string<char>::_Alloc_hider", i64, %union.anon }
%"struct.std::__cxx11::basic_string<char>::_Alloc_hider" = type { ptr }
%union.anon = type { i64, [8 x i8] }
%"struct.std::_Head_base.5" = type { %"struct.nblib::StrongType.1" }
%"class.nblib::NonBondedInteractionMap" = type { %"class.std::map" }
%"class.std::map" = type { %"class.std::_Rb_tree" }
%"class.std::_Rb_tree" = type { %"struct.std::_Rb_tree<std::tuple<nblib::StrongType<std::__cxx11::basic_string<char>, nblib::ParticleTypeNameParameter>, nblib::StrongType<std::__cxx11::basic_string<char>, nblib::ParticleTypeNameParameter>>, std::pair<const std::tuple<nblib::StrongType<std::__cxx11::basic_string<char>, nblib::ParticleTypeNameParameter>, nblib::StrongType<std::__cxx11::basic_string<char>, nblib::ParticleTypeNameParameter>>, std::tuple<nblib::StrongType<float, nblib::C6Parameter>, nblib::StrongType<float, nblib::C12Parameter>>>, std::_Select1st<std::pair<const std::tuple<nblib::StrongType<std::__cxx11::basic_string<char>, nblib::ParticleTypeNameParameter>, nblib::StrongType<std::__cxx11::basic_string<char>, nblib::ParticleTypeNameParameter>>, std::tuple<nblib::StrongType<float, nblib::C6Parameter>, nblib::StrongType<float, nblib::C12Parameter>>>>, std::less<std::tuple<nblib::StrongType<std::__cxx11::basic_string<char>, nblib::ParticleTypeNameParameter>, nblib::StrongType<std::__cxx11::basic_string<char>, nblib::ParticleTypeNameParameter>>>>::_Rb_tree_impl" }
%"struct.std::_Rb_tree<std::tuple<nblib::StrongType<std::__cxx11::basic_string<char>, nblib::ParticleTypeNameParameter>, nblib::StrongType<std::__cxx11::basic_string<char>, nblib::ParticleTypeNameParameter>>, std::pair<const std::tuple<nblib::StrongType<std::__cxx11::basic_string<char>, nblib::ParticleTypeNameParameter>, nblib::StrongType<std::__cxx11::basic_string<char>, nblib::ParticleTypeNameParameter>>, std::tuple<nblib::StrongType<float, nblib::C6Parameter>, nblib::StrongType<float, nblib::C12Parameter>>>, std::_Select1st<std::pair<const std::tuple<nblib::StrongType<std::__cxx11::basic_string<char>, nblib::ParticleTypeNameParameter>, nblib::StrongType<std::__cxx11::basic_string<char>, nblib::ParticleTypeNameParameter>>, std::tuple<nblib::StrongType<float, nblib::C6Parameter>, nblib::StrongType<float, nblib::C12Parameter>>>>, std::less<std::tuple<nblib::StrongType<std::__cxx11::basic_string<char>, nblib::ParticleTypeNameParameter>, nblib::StrongType<std::__cxx11::basic_string<char>, nblib::ParticleTypeNameParameter>>>>::_Rb_tree_impl" = type { [8 x i8], %"struct.std::_Rb_tree_header" }
%"struct.std::_Rb_tree_header" = type { %"struct.std::_Rb_tree_node_base", i64 }
%"struct.std::_Rb_tree_node_base" = type { i32, ptr, ptr, ptr }
%"struct.std::_Head_base.11" = type { %"struct.nblib::StrongType" }

; Function Attrs: mustprogress nounwind uwtable
define linkonce_odr noundef nonnull align 4 dereferenceable(4) ptr @_ZNSt10_Head_baseILm0EN5nblib10StrongTypeIfNS0_11C6ParameterEEELb0EE7_M_headERKS4_(ptr noundef nonnull align 4 dereferenceable(4) %0) #1 comdat align 2 {
  %2 = alloca ptr, align 8
  store ptr %0, ptr %2, align 8, !tbaa !24
  %3 = load ptr, ptr %2, align 8, !tbaa !24
  %4 = getelementptr inbounds nuw %"struct.std::_Head_base.11", ptr %3, i32 0, i32 0
  ret ptr %4
}

; Function Attrs: mustprogress nounwind uwtable
define linkonce_odr noundef nonnull align 4 dereferenceable(4) ptr @_ZNSt11_Tuple_implILm0EJN5nblib10StrongTypeIfNS0_11C6ParameterEEENS1_IfNS0_12C12ParameterEEEEE7_M_headERKS6_(ptr noundef nonnull align 4 dereferenceable(8) %0) #1 comdat align 2 {
  %2 = alloca ptr, align 8
  store ptr %0, ptr %2, align 8, !tbaa !22
  %3 = load ptr, ptr %2, align 8, !tbaa !22
  %4 = getelementptr inbounds i8, ptr %3, i64 4
  %5 = call noundef nonnull align 4 dereferenceable(4) ptr @_ZNSt10_Head_baseILm0EN5nblib10StrongTypeIfNS0_11C6ParameterEEELb0EE7_M_headERKS4_(ptr noundef nonnull align 4 dereferenceable(4) %4) #15
  ret ptr %5
}

; Function Attrs: mustprogress nounwind uwtable
define linkonce_odr noundef nonnull align 4 dereferenceable(4) ptr @_ZSt12__get_helperILm0EN5nblib10StrongTypeIfNS0_11C6ParameterEEEJNS1_IfNS0_12C12ParameterEEEEERKT0_RKSt11_Tuple_implIXT_EJS6_DpT1_EE(ptr noundef nonnull align 4 dereferenceable(8) %0) #1 comdat {
  %2 = alloca ptr, align 8
  store ptr %0, ptr %2, align 8, !tbaa !22
  %3 = load ptr, ptr %2, align 8, !tbaa !22
  %4 = call noundef nonnull align 4 dereferenceable(4) ptr @_ZNSt11_Tuple_implILm0EJN5nblib10StrongTypeIfNS0_11C6ParameterEEENS1_IfNS0_12C12ParameterEEEEE7_M_headERKS6_(ptr noundef nonnull align 4 dereferenceable(8) %3) #15
  ret ptr %4
}

; Function Attrs: mustprogress uwtable
define linkonce_odr void @_ZNSt5tupleIJN5nblib10StrongTypeINSt7__cxx1112basic_stringIcSt11char_traitsIcESaIcEEENS0_25ParticleTypeNameParameterEEES9_EEC2ILb1ETnNSt9enable_ifIXclsr4_TCCIXT_EEE29__is_implicitly_constructibleIRKS9_SE_EEEbE4typeELb1EEESE_SE_(ptr noundef nonnull align 8 dereferenceable(64) %0, ptr noundef nonnull align 8 dereferenceable(32) %1, ptr noundef nonnull align 8 dereferenceable(32) %2) unnamed_addr #0 comdat align 2 {
  %4 = alloca ptr, align 8
  %5 = alloca ptr, align 8
  %6 = alloca ptr, align 8
  store ptr %0, ptr %4, align 8, !tbaa !18
  store ptr %1, ptr %5, align 8, !tbaa !9
  store ptr %2, ptr %6, align 8, !tbaa !9
  %7 = load ptr, ptr %4, align 8
  %8 = load ptr, ptr %5, align 8, !tbaa !9
  %9 = load ptr, ptr %6, align 8, !tbaa !9
  call void @_ZNSt11_Tuple_implILm0EJN5nblib10StrongTypeINSt7__cxx1112basic_stringIcSt11char_traitsIcESaIcEEENS0_25ParticleTypeNameParameterEEES9_EEC2ERKS9_SC_(ptr noundef nonnull align 8 dereferenceable(64) %7, ptr noundef nonnull align 8 dereferenceable(32) %8, ptr noundef nonnull align 8 dereferenceable(32) %9)
  ret void
}

; Function Attrs: mustprogress nounwind uwtable
define linkonce_odr noundef nonnull align 4 dereferenceable(4) ptr @_ZSt3getILm0EJN5nblib10StrongTypeIfNS0_11C6ParameterEEENS1_IfNS0_12C12ParameterEEEEERKNSt13tuple_elementIXT_ESt5tupleIJDpT0_EEE4typeERKSA_(ptr noundef nonnull align 4 dereferenceable(8) %0) #1 comdat {
  %2 = alloca ptr, align 8
  store ptr %0, ptr %2, align 8, !tbaa !14
  %3 = load ptr, ptr %2, align 8, !tbaa !14
  %4 = call noundef nonnull align 4 dereferenceable(4) ptr @_ZSt12__get_helperILm0EN5nblib10StrongTypeIfNS0_11C6ParameterEEEJNS1_IfNS0_12C12ParameterEEEEERKT0_RKSt11_Tuple_implIXT_EJS6_DpT1_EE(ptr noundef nonnull align 4 dereferenceable(8) %3) #15
  ret ptr %4
}

; Function Attrs: mustprogress uwtable
define linkonce_odr void @_ZSt10make_tupleIJRKN5nblib10StrongTypeINSt7__cxx1112basic_stringIcSt11char_traitsIcESaIcEEENS0_25ParticleTypeNameParameterEEESB_EESt5tupleIJDpNSt25__strip_reference_wrapperINSt5decayIT_E4typeEE6__typeEEEDpOSF_(ptr dead_on_unwind noalias writable sret(%"class.std::tuple") align 8 %0, ptr noundef nonnull align 8 dereferenceable(32) %1, ptr noundef nonnull align 8 dereferenceable(32) %2) #0 comdat {
  %4 = alloca ptr, align 8
  %5 = alloca ptr, align 8
  %6 = alloca ptr, align 8
  store ptr %0, ptr %4, align 8
  store ptr %1, ptr %5, align 8, !tbaa !9
  store ptr %2, ptr %6, align 8, !tbaa !9
  %7 = load ptr, ptr %5, align 8, !tbaa !9
  %8 = load ptr, ptr %6, align 8, !tbaa !9
  call void @_ZNSt5tupleIJN5nblib10StrongTypeINSt7__cxx1112basic_stringIcSt11char_traitsIcESaIcEEENS0_25ParticleTypeNameParameterEEES9_EEC2ILb1ETnNSt9enable_ifIXclsr4_TCCIXT_EEE29__is_implicitly_constructibleIRKS9_SE_EEEbE4typeELb1EEESE_SE_(ptr noundef nonnull align 8 dereferenceable(64) %0, ptr noundef nonnull align 8 dereferenceable(32) %7, ptr noundef nonnull align 8 dereferenceable(32) %8)
  ret void
}

; Function Attrs: mustprogress uwtable
define float @_ZNK5nblib23NonBondedInteractionMap5getC6ERKNS_10StrongTypeINSt7__cxx1112basic_stringIcSt11char_traitsIcESaIcEEENS_25ParticleTypeNameParameterEEESB_(ptr noundef nonnull align 8 dereferenceable(48) %0, ptr noundef nonnull align 8 dereferenceable(32) %1, ptr noundef nonnull align 8 dereferenceable(32) %2) #0 align 2 personality ptr @__gxx_personality_v0 {
  %4 = alloca %"struct.nblib::StrongType", align 4
  %5 = alloca ptr, align 8
  %6 = alloca ptr, align 8
  %7 = alloca ptr, align 8
  %8 = alloca %"class.std::tuple", align 8
  %9 = alloca ptr, align 8
  %10 = alloca i32, align 4
  store ptr %0, ptr %5, align 8, !tbaa !4
  store ptr %1, ptr %6, align 8, !tbaa !9
  store ptr %2, ptr %7, align 8, !tbaa !9
  %11 = load ptr, ptr %5, align 8
  %12 = getelementptr inbounds nuw %"class.nblib::NonBondedInteractionMap", ptr %11, i32 0, i32 0
  call void @llvm.lifetime.start.p0(i64 64, ptr %8) #15
  %13 = load ptr, ptr %6, align 8, !tbaa !9
  %14 = load ptr, ptr %7, align 8, !tbaa !9
  call void @_ZSt10make_tupleIJRKN5nblib10StrongTypeINSt7__cxx1112basic_stringIcSt11char_traitsIcESaIcEEENS0_25ParticleTypeNameParameterEEESB_EESt5tupleIJDpNSt25__strip_reference_wrapperINSt5decayIT_E4typeEE6__typeEEEDpOSF_(ptr dead_on_unwind writable sret(%"class.std::tuple") align 8 %8, ptr noundef nonnull align 8 dereferenceable(32) %13, ptr noundef nonnull align 8 dereferenceable(32) %14)
  %15 = invoke noundef nonnull align 4 dereferenceable(8) ptr @_ZNKSt3mapISt5tupleIJN5nblib10StrongTypeINSt7__cxx1112basic_stringIcSt11char_traitsIcESaIcEEENS1_25ParticleTypeNameParameterEEESA_EES0_IJNS2_IfNS1_11C6ParameterEEENS2_IfNS1_12C12ParameterEEEEESt4lessISB_ESaISt4pairIKSB_SG_EEE2atERSK_(ptr noundef nonnull align 8 dereferenceable(48) %12, ptr noundef nonnull align 8 dereferenceable(64) %8)
          to label %16 unwind label %20

16:                                               ; preds = %3
  %17 = call noundef nonnull align 4 dereferenceable(4) ptr @_ZSt3getILm0EJN5nblib10StrongTypeIfNS0_11C6ParameterEEENS1_IfNS0_12C12ParameterEEEEERKNSt13tuple_elementIXT_ESt5tupleIJDpT0_EEE4typeERKSA_(ptr noundef nonnull align 4 dereferenceable(8) %15) #15
  call void @llvm.memcpy.p0.p0.i64(ptr align 4 %4, ptr align 4 %17, i64 4, i1 false), !tbaa.struct !11
  call void @_ZNSt11_Tuple_implILm0EJN5nblib10StrongTypeINSt7__cxx1112basic_stringIcSt11char_traitsIcESaIcEEENS0_25ParticleTypeNameParameterEEES9_EED2Ev(ptr noundef nonnull align 8 dereferenceable(64) %8) #15
  call void @llvm.lifetime.end.p0(i64 64, ptr %8) #15
  %18 = getelementptr inbounds nuw %"struct.nblib::StrongType", ptr %4, i32 0, i32 0
  %19 = load float, ptr %18, align 4
  ret float %19

20:                                               ; preds = %3
  %21 = landingpad { ptr, i32 }
          cleanup
  %22 = extractvalue { ptr, i32 } %21, 0
  store ptr %22, ptr %9, align 8
  %23 = extractvalue { ptr, i32 } %21, 1
  store i32 %23, ptr %10, align 4
  call void @_ZNSt11_Tuple_implILm0EJN5nblib10StrongTypeINSt7__cxx1112basic_stringIcSt11char_traitsIcESaIcEEENS0_25ParticleTypeNameParameterEEES9_EED2Ev(ptr noundef nonnull align 8 dereferenceable(64) %8) #15
  call void @llvm.lifetime.end.p0(i64 64, ptr %8) #15
  br label %24

24:                                               ; preds = %20
  %25 = load ptr, ptr %9, align 8
  %26 = load i32, ptr %10, align 4
  %27 = insertvalue { ptr, i32 } poison, ptr %25, 0
  %28 = insertvalue { ptr, i32 } %27, i32 %26, 1
  resume { ptr, i32 } %28
}