; Function Attrs: mustprogress uwtable
define float @_ZNK5nblib23NonBondedInteractionMap5getC6ERKNS_10StrongTypeINSt7__cxx1112basic_stringIcSt11char_traitsIcESaIcEEENS_25ParticleTypeNameParameterEEESB_(ptr noundef nonnull align 8 dereferenceable(48) %0, ptr noundef nonnull align 8 dereferenceable(32) %1, ptr noundef nonnull align 8 dereferenceable(32) %2) local_unnamed_addr #0 align 2 personality ptr @__gxx_personality_v0 {
  %4 = alloca %"class.std::tuple", align 8
  call void @llvm.lifetime.start.p0(i64 64, ptr nonnull %4) #22
  call void @_ZNSt11_Tuple_implILm0EJN5nblib10StrongTypeINSt7__cxx1112basic_stringIcSt11char_traitsIcESaIcEEENS0_25ParticleTypeNameParameterEEES9_EEC2ERKS9_SC_(ptr noundef nonnull align 8 dereferenceable(64) %4, ptr noundef nonnull align 8 dereferenceable(32) %1, ptr noundef nonnull align 8 dereferenceable(32) %2)
  %5 = invoke noundef nonnull align 4 dereferenceable(8) ptr @_ZNKSt3mapISt5tupleIJN5nblib10StrongTypeINSt7__cxx1112basic_stringIcSt11char_traitsIcESaIcEEENS1_25ParticleTypeNameParameterEEESA_EES0_IJNS2_IfNS1_11C6ParameterEEENS2_IfNS1_12C12ParameterEEEEESt4lessISB_ESaISt4pairIKSB_SG_EEE2atERSK_(ptr noundef nonnull align 8 dereferenceable(48) %0, ptr noundef nonnull align 8 dereferenceable(64) %4)
          to label %6 unwind label %25

6:                                                ; preds = %3
  %7 = getelementptr inbounds nuw i8, ptr %5, i64 4
  %.sroa.0.0.copyload = load float, ptr %7, align 4, !tbaa !4
  %8 = getelementptr inbounds nuw i8, ptr %4, i64 32
  %9 = load ptr, ptr %8, align 8, !tbaa !8
  %10 = getelementptr inbounds nuw i8, ptr %4, i64 48
  %11 = icmp eq ptr %9, %10
  br i1 %11, label %_ZNKSt7__cxx1112basic_stringIcSt11char_traitsIcESaIcEE11_M_is_localEv.exit.thread.i.i.i.i.i, label %_ZNKSt7__cxx1112basic_stringIcSt11char_traitsIcESaIcEE11_M_is_localEv.exit.i.i.i.i.i

_ZNKSt7__cxx1112basic_stringIcSt11char_traitsIcESaIcEE11_M_is_localEv.exit.thread.i.i.i.i.i: ; preds = %6
  %12 = getelementptr inbounds nuw i8, ptr %4, i64 40
  %13 = load i64, ptr %12, align 8, !tbaa !14
  %14 = icmp ult i64 %13, 16
  call void @llvm.assume(i1 %14)
  br label %_ZNSt10_Head_baseILm0EN5nblib10StrongTypeINSt7__cxx1112basic_stringIcSt11char_traitsIcESaIcEEENS0_25ParticleTypeNameParameterEEELb0EED2Ev.exit.i

_ZNKSt7__cxx1112basic_stringIcSt11char_traitsIcESaIcEE11_M_is_localEv.exit.i.i.i.i.i: ; preds = %6
  %15 = load i64, ptr %10, align 8, !tbaa !15
  %16 = add i64 %15, 1
  call void @_ZdlPvm(ptr noundef %9, i64 noundef %16) #23
  br label %_ZNSt10_Head_baseILm0EN5nblib10StrongTypeINSt7__cxx1112basic_stringIcSt11char_traitsIcESaIcEEENS0_25ParticleTypeNameParameterEEELb0EED2Ev.exit.i

_ZNSt10_Head_baseILm0EN5nblib10StrongTypeINSt7__cxx1112basic_stringIcSt11char_traitsIcESaIcEEENS0_25ParticleTypeNameParameterEEELb0EED2Ev.exit.i: ; preds = %_ZNKSt7__cxx1112basic_stringIcSt11char_traitsIcESaIcEE11_M_is_localEv.exit.i.i.i.i.i, %_ZNKSt7__cxx1112basic_stringIcSt11char_traitsIcESaIcEE11_M_is_localEv.exit.thread.i.i.i.i.i
  %17 = load ptr, ptr %4, align 8, !tbaa !8
  %18 = getelementptr inbounds nuw i8, ptr %4, i64 16
  %19 = icmp eq ptr %17, %18
  br i1 %19, label %_ZNKSt7__cxx1112basic_stringIcSt11char_traitsIcESaIcEE11_M_is_localEv.exit.thread.i.i.i.i2.i, label %_ZNKSt7__cxx1112basic_stringIcSt11char_traitsIcESaIcEE11_M_is_localEv.exit.i.i.i.i1.i

_ZNKSt7__cxx1112basic_stringIcSt11char_traitsIcESaIcEE11_M_is_localEv.exit.thread.i.i.i.i2.i: ; preds = %_ZNSt10_Head_baseILm0EN5nblib10StrongTypeINSt7__cxx1112basic_stringIcSt11char_traitsIcESaIcEEENS0_25ParticleTypeNameParameterEEELb0EED2Ev.exit.i
  %20 = getelementptr inbounds nuw i8, ptr %4, i64 8
  %21 = load i64, ptr %20, align 8, !tbaa !14
  %22 = icmp ult i64 %21, 16
  call void @llvm.assume(i1 %22)
  br label %_ZNSt11_Tuple_implILm0EJN5nblib10StrongTypeINSt7__cxx1112basic_stringIcSt11char_traitsIcESaIcEEENS0_25ParticleTypeNameParameterEEES9_EED2Ev.exit

_ZNKSt7__cxx1112basic_stringIcSt11char_traitsIcESaIcEE11_M_is_localEv.exit.i.i.i.i1.i: ; preds = %_ZNSt10_Head_baseILm0EN5nblib10StrongTypeINSt7__cxx1112basic_stringIcSt11char_traitsIcESaIcEEENS0_25ParticleTypeNameParameterEEELb0EED2Ev.exit.i
  %23 = load i64, ptr %18, align 8, !tbaa !15
  %24 = add i64 %23, 1
  call void @_ZdlPvm(ptr noundef %17, i64 noundef %24) #23
  br label %_ZNSt11_Tuple_implILm0EJN5nblib10StrongTypeINSt7__cxx1112basic_stringIcSt11char_traitsIcESaIcEEENS0_25ParticleTypeNameParameterEEES9_EED2Ev.exit

_ZNSt11_Tuple_implILm0EJN5nblib10StrongTypeINSt7__cxx1112basic_stringIcSt11char_traitsIcESaIcEEENS0_25ParticleTypeNameParameterEEES9_EED2Ev.exit: ; preds = %_ZNKSt7__cxx1112basic_stringIcSt11char_traitsIcESaIcEE11_M_is_localEv.exit.thread.i.i.i.i2.i, %_ZNKSt7__cxx1112basic_stringIcSt11char_traitsIcESaIcEE11_M_is_localEv.exit.i.i.i.i1.i
  call void @llvm.lifetime.end.p0(i64 64, ptr nonnull %4) #22
  ret float %.sroa.0.0.copyload

25:                                               ; preds = %3
  %26 = landingpad { ptr, i32 }
          cleanup
  call void @_ZNSt11_Tuple_implILm0EJN5nblib10StrongTypeINSt7__cxx1112basic_stringIcSt11char_traitsIcESaIcEEENS0_25ParticleTypeNameParameterEEES9_EED2Ev(ptr noundef nonnull align 8 dereferenceable(64) %4) #22
  call void @llvm.lifetime.end.p0(i64 64, ptr nonnull %4) #22
  resume { ptr, i32 } %26
}